target datalayout = "e-m:e-p270:32:32-p271:32:32-p272:64:64-i64:64-i128:128-f80:128-n8:16:32:64-S128"
target triple = "x86_64-pc-linux-gnu"

%"class.boost::fibers::context" = type { ptr, %"struct.std::atomic", %"class.boost::intrusive::slist_member_hook", %"class.boost::fibers::detail::spinlock_ttas", i8, %"class.boost::fibers::wait_queue", %"struct.std::atomic", ptr, %"class.std::map", %"class.boost::intrusive::set_member_hook", %"class.boost::fibers::waker", %"class.boost::intrusive::list_member_hook", %"class.boost::intrusive::slist_member_hook.7", %"class.boost::intrusive::list_member_hook.8", ptr, %"class.boost::context::fiber", %"class.std::chrono::time_point", i32, i32 }
%"class.boost::intrusive::slist_member_hook" = type { %"class.boost::intrusive::generic_hook" }
%"class.boost::intrusive::generic_hook" = type { %"struct.boost::intrusive::slist_node" }
%"struct.boost::intrusive::slist_node" = type { ptr }
%"class.boost::fibers::detail::spinlock_ttas" = type { %"struct.std::atomic.2" }
%"struct.std::atomic.2" = type { i32 }
%"class.boost::fibers::wait_queue" = type { %"class.boost::intrusive::slist" }
%"class.boost::intrusive::slist" = type { %"class.boost::intrusive::slist_impl" }
%"class.boost::intrusive::slist_impl" = type { %"struct.boost::intrusive::slist_impl<boost::intrusive::mhtraits<boost::fibers::waker_with_hook, boost::intrusive::slist_member_hook<>, &boost::fibers::waker_with_hook::waker_queue_hook_>, unsigned long, 4, void>::data_t" }
%"struct.boost::intrusive::slist_impl<boost::intrusive::mhtraits<boost::fibers::waker_with_hook, boost::intrusive::slist_member_hook<>, &boost::fibers::waker_with_hook::waker_queue_hook_>, unsigned long, 4, void>::data_t" = type { %"struct.boost::intrusive::slist_impl<boost::intrusive::mhtraits<boost::fibers::waker_with_hook, boost::intrusive::slist_member_hook<>, &boost::fibers::waker_with_hook::waker_queue_hook_>, unsigned long, 4, void>::root_plus_size" }
%"struct.boost::intrusive::slist_impl<boost::intrusive::mhtraits<boost::fibers::waker_with_hook, boost::intrusive::slist_member_hook<>, &boost::fibers::waker_with_hook::waker_queue_hook_>, unsigned long, 4, void>::root_plus_size" = type { %"struct.boost::intrusive::header_holder_plus_last" }
%"struct.boost::intrusive::header_holder_plus_last" = type { %"struct.boost::intrusive::detail::default_header_holder", ptr }
%"struct.boost::intrusive::detail::default_header_holder" = type { %"struct.boost::intrusive::slist_node" }
%"struct.std::atomic" = type { %"struct.std::__atomic_base" }
%"struct.std::__atomic_base" = type { i64 }
%"class.std::map" = type { %"class.std::_Rb_tree" }
%"class.std::_Rb_tree" = type { %"struct.std::_Rb_tree<unsigned long, std::pair<const unsigned long, boost::fibers::context::fss_data>, std::_Select1st<std::pair<const unsigned long, boost::fibers::context::fss_data>>, std::less<unsigned long>>::_Rb_tree_impl" }
%"struct.std::_Rb_tree<unsigned long, std::pair<const unsigned long, boost::fibers::context::fss_data>, std::_Select1st<std::pair<const unsigned long, boost::fibers::context::fss_data>>, std::less<unsigned long>>::_Rb_tree_impl" = type { [8 x i8], %"struct.std::_Rb_tree_header" }
%"struct.std::_Rb_tree_header" = type { %"struct.std::_Rb_tree_node_base", i64 }
%"struct.std::_Rb_tree_node_base" = type { i32, ptr, ptr, ptr }
%"class.boost::intrusive::set_member_hook" = type { %"class.boost::intrusive::generic_hook.3" }
%"class.boost::intrusive::generic_hook.3" = type { %"struct.boost::intrusive::rbtree_node" }
%"struct.boost::intrusive::rbtree_node" = type { ptr, ptr, ptr, i32 }
%"class.boost::fibers::waker" = type { ptr, i64 }
%"class.boost::intrusive::list_member_hook" = type { %"class.boost::intrusive::generic_hook.5" }
%"class.boost::intrusive::generic_hook.5" = type { %"struct.boost::intrusive::list_node" }
%"struct.boost::intrusive::list_node" = type { ptr, ptr }
%"class.boost::intrusive::slist_member_hook.7" = type { %"class.boost::intrusive::generic_hook" }
%"class.boost::intrusive::list_member_hook.8" = type { %"class.boost::intrusive::generic_hook.5" }
%"class.boost::context::fiber" = type { ptr }
%"class.std::chrono::time_point" = type { %"class.std::chrono::duration" }
%"class.std::chrono::duration" = type { i64 }

; Function Attrs: mustprogress nounwind uwtable
define void @_ZN5boost6fibers7context14set_propertiesEPNS0_16fiber_propertiesE(ptr noundef nonnull align 8 dereferenceable(232) %0, ptr noundef %1) #4 align 2 {
  %3 = alloca ptr, align 8
  %4 = alloca ptr, align 8
  store ptr %0, ptr %3, align 8, !tbaa !3
  store ptr %1, ptr %4, align 8, !tbaa !3
  %5 = load ptr, ptr %3, align 8
  %6 = getelementptr inbounds nuw %"class.boost::fibers::context", ptr %5, i32 0, i32 14
  %7 = load ptr, ptr %6, align 8, !tbaa !94
  %8 = icmp eq ptr %7, null
  br i1 %8, label %13, label %9

9:                                                ; preds = %2
  %10 = load ptr, ptr %7, align 8, !tbaa !84
  %11 = getelementptr inbounds ptr, ptr %10, i64 1
  %12 = load ptr, ptr %11, align 8
  call void %12(ptr noundef nonnull align 8 dereferenceable(24) %7) #3
  br label %13

13:                                               ; preds = %9, %2
  %14 = load ptr, ptr %4, align 8, !tbaa !3
  %15 = getelementptr inbounds nuw %"class.boost::fibers::context", ptr %5, i32 0, i32 14
  store ptr %14, ptr %15, align 8, !tbaa !94
  ret void
}