; Function Attrs: mustprogress nounwind uwtable
define void @_ZN5boost6fibers7context14set_propertiesEPNS0_16fiber_propertiesE(ptr nocapture noundef nonnull align 8 dereferenceable(232) %0, ptr noundef %1) local_unnamed_addr #3 align 2 {
  %3 = getelementptr inbounds nuw i8, ptr %0, i64 200
  %4 = load ptr, ptr %3, align 8, !tbaa !93
  %5 = icmp eq ptr %4, null
  br i1 %5, label %10, label %6

6:                                                ; preds = %2
  %7 = load ptr, ptr %4, align 8, !tbaa !10
  %8 = getelementptr inbounds i8, ptr %7, i64 8
  %9 = load ptr, ptr %8, align 8
  tail call void %9(ptr noundef nonnull align 8 dereferenceable(24) %4) #8
  br label %10

10:                                               ; preds = %6, %2
  store ptr %1, ptr %3, align 8, !tbaa !93
  ret void
}